; Function Attrs: mustprogress uwtable
define dso_local void @_ZN11V3LexerBase20yy_load_buffer_stateEv(ptr noundef nonnull align 8 dereferenceable(732) %0) local_unnamed_addr #4 align 2 {
  %2 = getelementptr inbounds i8, ptr %0, i64 648
  %3 = load ptr, ptr %2, align 8
  %4 = getelementptr inbounds i8, ptr %0, i64 632
  %5 = load i64, ptr %4, align 8
  %6 = getelementptr inbounds ptr, ptr %3, i64 %5
  %7 = load ptr, ptr %6, align 8
  %8 = getelementptr inbounds i8, ptr %7, i64 28
  %9 = load i32, ptr %8, align 4
  %10 = getelementptr inbounds i8, ptr %0, i64 604
  store i32 %9, ptr %10, align 4
  %11 = load ptr, ptr %6, align 8
  %12 = getelementptr inbounds i8, ptr %11, i64 16
  %13 = load ptr, ptr %12, align 8
  %14 = getelementptr inbounds i8, ptr %0, i64 608
  store ptr %13, ptr %14, align 8
  %15 = getelementptr inbounds i8, ptr %0, i64 8
  store ptr %13, ptr %15, align 8
  %16 = getelementptr inbounds i8, ptr %0, i64 48
  %17 = load ptr, ptr %16, align 8
  %18 = getelementptr i8, ptr %17, i64 -24
  %19 = load i64, ptr %18, align 8
  %20 = getelementptr inbounds i8, ptr %16, i64 %19
  %21 = load ptr, ptr %6, align 8
  %22 = load ptr, ptr %21, align 8
  %23 = tail call noundef ptr @_ZNSt9basic_iosIcSt11char_traitsIcEE5rdbufEPSt15basic_streambufIcS1_E(ptr noundef nonnull align 8 dereferenceable(264) %20, ptr noundef %22)
  %24 = load ptr, ptr %14, align 8
  %25 = load i8, ptr %24, align 1
  %26 = getelementptr inbounds i8, ptr %0, i64 600
  store i8 %25, ptr %26, align 8
  ret void
}